; Function Attrs: mustprogress nounwind uwtable
define hidden noundef ptr @_ZN25MergePrimitiveArrayStores17make_merged_storeERK9Node_ListP4Node(ptr nocapture noundef nonnull readonly align 8 dereferenceable(16) %0, ptr nocapture noundef nonnull readonly align 8 dereferenceable(28) %1, ptr noundef %2) local_unnamed_addr #1 align 2 {
  %4 = getelementptr inbounds i8, ptr %1, i64 24
  %5 = load i32, ptr %4, align 8
  %6 = add i32 %5, -1
  %7 = getelementptr inbounds i8, ptr %1, i64 16
  %8 = load ptr, ptr %7, align 8
  %9 = zext i32 %6 to i64
  %10 = getelementptr inbounds ptr, ptr %8, i64 %9
  %11 = load ptr, ptr %10, align 8
  %12 = getelementptr inbounds i8, ptr %0, i64 8
  %13 = load ptr, ptr %12, align 8
  %14 = getelementptr inbounds i8, ptr %13, i64 8
  %15 = load ptr, ptr %14, align 8
  %16 = load ptr, ptr %15, align 8
  %17 = getelementptr inbounds i8, ptr %11, i64 8
  %18 = load ptr, ptr %17, align 8
  %19 = getelementptr inbounds i8, ptr %18, i64 8
  %20 = load ptr, ptr %19, align 8
  %21 = getelementptr inbounds i8, ptr %18, i64 16
  %22 = load ptr, ptr %21, align 8
  %23 = load ptr, ptr %13, align 8
  %24 = getelementptr inbounds i8, ptr %23, i64 48
  %25 = load ptr, ptr %24, align 8
  %26 = tail call noundef ptr %25(ptr noundef nonnull align 8 dereferenceable(56) %13) #13
  %27 = load ptr, ptr %12, align 8
  %28 = load ptr, ptr %27, align 8
  %29 = getelementptr inbounds i8, ptr %28, i64 216
  %30 = load ptr, ptr %29, align 8
  %31 = tail call noundef i32 %30(ptr noundef nonnull align 8 dereferenceable(56) %27) #13
  %32 = load i32, ptr %4, align 8
  %33 = mul i32 %32, %31
  %switch.tableidx = add i32 %33, -2
  %34 = icmp ult i32 %switch.tableidx, 7
  %switch.cast = zext i32 %switch.tableidx to i56
  %switch.shiftamt = shl nuw nsw i56 %switch.cast, 3
  %switch.downshift = lshr i56 3205503258354441, %switch.shiftamt
  %switch.masked = trunc i56 %switch.downshift to i8
  %.0 = select i1 %34, i8 %switch.masked, i8 99
  %35 = load ptr, ptr %0, align 8
  %36 = tail call noundef ptr @_ZN9StoreNode4makeER8PhaseGVNP4NodeS3_S3_PK7TypePtrS3_9BasicTypeN7MemNode6MemOrdEb(ptr noundef nonnull align 8 dereferenceable(2400) %35, ptr noundef %16, ptr noundef %20, ptr noundef %22, ptr poison, ptr noundef %2, i8 noundef zeroext %.0, i32 noundef 0, i1 noundef zeroext false)
  %37 = getelementptr inbounds i8, ptr %36, i64 53
  store i8 1, ptr %37, align 1
  %38 = load ptr, ptr %0, align 8
  %39 = getelementptr inbounds i8, ptr %38, i64 24
  %40 = load i8, ptr %39, align 8
  %41 = trunc i8 %40 to i1
  %..i = select i1 %41, ptr %38, ptr null
  %42 = getelementptr inbounds i8, ptr %..i, i64 2408
  %43 = load ptr, ptr %42, align 8
  %44 = getelementptr inbounds i8, ptr %43, i64 32
  %45 = getelementptr inbounds i8, ptr %20, i64 40
  %46 = load i32, ptr %45, align 8
  %47 = lshr i32 %46, 5
  %48 = load i32, ptr %44, align 8
  %.not.i.i = icmp ult i32 %47, %48
  br i1 %.not.i.i, label %_ZN9VectorSet8test_setEj.exit.i, label %49

49:                                               ; preds = %3
  tail call void @_ZN9VectorSet4growEj(ptr noundef nonnull align 8 dereferenceable(32) %44, i32 noundef %47) #13
  br label %_ZN9VectorSet8test_setEj.exit.i

_ZN9VectorSet8test_setEj.exit.i:                  ; preds = %49, %3
  %50 = and i32 %46, 31
  %51 = shl nuw i32 1, %50
  %52 = getelementptr inbounds i8, ptr %43, i64 40
  %53 = load ptr, ptr %52, align 8
  %54 = zext nneg i32 %47 to i64
  %55 = getelementptr inbounds i32, ptr %53, i64 %54
  %56 = load i32, ptr %55, align 4
  %57 = or i32 %56, %51
  store i32 %57, ptr %55, align 4
  %58 = and i32 %56, %51
  %.not.i = icmp eq i32 %58, 0
  br i1 %.not.i, label %59, label %_ZN16Unique_Node_List4pushEP4Node.exit

59:                                               ; preds = %_ZN9VectorSet8test_setEj.exit.i
  %60 = getelementptr inbounds i8, ptr %43, i64 24
  %61 = load i32, ptr %60, align 8
  %62 = add i32 %61, 1
  store i32 %62, ptr %60, align 8
  %63 = getelementptr inbounds i8, ptr %43, i64 8
  %64 = load i32, ptr %63, align 8
  %.not.i.i.i = icmp ugt i32 %64, %61
  br i1 %.not.i.i.i, label %_ZN9Node_List4pushEP4Node.exit.i, label %65

65:                                               ; preds = %59
  tail call void @_ZN10Node_Array4growEj(ptr noundef nonnull align 8 dereferenceable(24) %43, i32 noundef %61) #13
  br label %_ZN9Node_List4pushEP4Node.exit.i

_ZN9Node_List4pushEP4Node.exit.i:                 ; preds = %65, %59
  %66 = getelementptr inbounds i8, ptr %43, i64 16
  %67 = load ptr, ptr %66, align 8
  %68 = zext i32 %61 to i64
  %69 = getelementptr inbounds ptr, ptr %67, i64 %68
  store ptr %20, ptr %69, align 8
  br label %_ZN16Unique_Node_List4pushEP4Node.exit

_ZN16Unique_Node_List4pushEP4Node.exit:           ; preds = %_ZN9VectorSet8test_setEj.exit.i, %_ZN9Node_List4pushEP4Node.exit.i
  ret ptr %36
}